target datalayout = "e-m:e-p270:32:32-p271:32:32-p272:64:64-i64:64-i128:128-f80:128-n8:16:32:64-S128"
target triple = "x86_64-pc-linux-gnu"

%struct.pmix_object_t = type { %union.pthread_mutex_t, ptr, i32, %struct.pmix_tma }
%struct.pmix_tma = type { ptr, ptr, ptr, ptr, ptr, ptr, ptr, ptr }
%union.pthread_mutex_t = type { %struct.__pthread_mutex_s }
%struct.__pthread_mutex_s = type { i32, i32, i32, i32, i32, i16, i16, %struct.__pthread_internal_list }
%struct.__pthread_internal_list = type { ptr, ptr }
%struct.pmix_globals_t = type { i32, %struct.pmix_proc, %struct.pmix_value, %struct.pmix_value, ptr, i32, i32, ptr, i32, i32, i32, i32, i32, ptr, ptr, i32, %struct.pmix_events_t, i8, i8, %struct.timeval, %struct.pmix_list_t, %struct.pmix_pointer_array_t, i32, i32, %struct.pmix_hotel_t, i8, %struct.pmix_list_t, i8, i8, i8, i64, %struct.pmix_list_t, %struct.pmix_topology_t, %struct.pmix_cpuset_t, i8, i8, %struct.pmix_iof_flags_t, %struct.pmix_keyindex_t }
%struct.pmix_proc = type { [256 x i8], i32 }
%struct.pmix_value = type { i16, %union.anon }
%union.anon = type { %struct.pmix_envar_t }
%struct.pmix_envar_t = type { ptr, ptr, i8 }
%struct.pmix_events_t = type { %struct.pmix_object_t, i64, ptr, ptr, %struct.pmix_list_t, %struct.pmix_list_t, %struct.pmix_list_t, %struct.pmix_list_t }
%struct.timeval = type { i64, i64 }
%struct.pmix_pointer_array_t = type { %struct.pmix_object_t, i32, i32, i32, i32, i32, ptr, ptr }
%struct.pmix_hotel_t = type { %struct.pmix_object_t, i32, ptr, %struct.timeval, ptr, ptr, ptr, ptr, i32 }
%struct.pmix_list_t = type { %struct.pmix_object_t, %struct.pmix_list_item_t, i64 }
%struct.pmix_list_item_t = type { %struct.pmix_object_t, ptr, ptr, i32 }
%struct.pmix_topology_t = type { ptr, ptr }
%struct.pmix_cpuset_t = type { ptr, ptr }
%struct.pmix_iof_flags_t = type { i8, i8, i8, i8, i8, i8, i8, ptr, ptr, i8, i8, i8, i8, i8, i8 }
%struct.pmix_keyindex_t = type { %struct.pmix_object_t, ptr, i32 }
%struct.event = type { %struct.event_callback, %union.anon.2, i32, ptr, %union.anon.4, i16, i16, %struct.timeval }
%struct.event_callback = type { %struct.anon.0, i16, i8, i8, %union.anon.1, ptr }
%struct.anon.0 = type { ptr, ptr }
%union.anon.1 = type { ptr }
%union.anon.2 = type { %struct.anon.3 }
%struct.anon.3 = type { ptr, ptr }
%union.anon.4 = type { %struct.anon.5 }
%struct.anon.5 = type { %struct.anon.6, %struct.timeval }
%struct.anon.6 = type { ptr, ptr }
%struct.pmix_event_chain_t = type { %struct.pmix_list_item_t, i32, %struct.event, i8, i8, i8, i8, %struct.pmix_proc, i8, ptr, i64, ptr, i64, ptr, i64, i64, i32, ptr, i64, ptr, i64, ptr, ptr, ptr, ptr, ptr }

@pmix_globals = external global %struct.pmix_globals_t, align 8

; Function Attrs: inlinehint nounwind uwtable
define internal void @pmix_atomic_wmb() #2 {
  fence release
  ret void
}

; Function Attrs: nounwind uwtable
define internal void @progress_local_event_hdlr(i32 noundef %0, ptr noundef %1, i64 noundef %2, ptr noundef %3, ptr noundef %4, ptr noundef %5) #0 {
  %7 = alloca i32, align 4
  %8 = alloca ptr, align 8
  %9 = alloca i64, align 8
  %10 = alloca ptr, align 8
  %11 = alloca ptr, align 8
  %12 = alloca ptr, align 8
  %13 = alloca ptr, align 8
  store i32 %0, ptr %7, align 4, !tbaa !3
  store ptr %1, ptr %8, align 8, !tbaa !11
  store i64 %2, ptr %9, align 8, !tbaa !13
  store ptr %3, ptr %10, align 8, !tbaa !15
  store ptr %4, ptr %11, align 8, !tbaa !15
  store ptr %5, ptr %12, align 8, !tbaa !15
  call void @llvm.lifetime.start.p0(i64 8, ptr %13) #13
  %14 = load ptr, ptr %12, align 8, !tbaa !15
  store ptr %14, ptr %13, align 8, !tbaa !86
  %15 = load i32, ptr %7, align 4, !tbaa !3
  %16 = load ptr, ptr %13, align 8, !tbaa !86
  %17 = getelementptr inbounds nuw %struct.pmix_event_chain_t, ptr %16, i32 0, i32 16
  store i32 %15, ptr %17, align 8, !tbaa !213
  %18 = load ptr, ptr %8, align 8, !tbaa !11
  %19 = load ptr, ptr %13, align 8, !tbaa !86
  %20 = getelementptr inbounds nuw %struct.pmix_event_chain_t, ptr %19, i32 0, i32 19
  store ptr %18, ptr %20, align 8, !tbaa !214
  %21 = load i64, ptr %9, align 8, !tbaa !13
  %22 = load ptr, ptr %13, align 8, !tbaa !86
  %23 = getelementptr inbounds nuw %struct.pmix_event_chain_t, ptr %22, i32 0, i32 20
  store i64 %21, ptr %23, align 8, !tbaa !215
  %24 = load ptr, ptr %10, align 8, !tbaa !15
  %25 = load ptr, ptr %13, align 8, !tbaa !86
  %26 = getelementptr inbounds nuw %struct.pmix_event_chain_t, ptr %25, i32 0, i32 22
  store ptr %24, ptr %26, align 8, !tbaa !216
  %27 = load ptr, ptr %11, align 8, !tbaa !15
  %28 = load ptr, ptr %13, align 8, !tbaa !86
  %29 = getelementptr inbounds nuw %struct.pmix_event_chain_t, ptr %28, i32 0, i32 23
  store ptr %27, ptr %29, align 8, !tbaa !217
  br label %30

30:                                               ; preds = %6
  %31 = load ptr, ptr %13, align 8, !tbaa !86
  %32 = getelementptr inbounds nuw %struct.pmix_event_chain_t, ptr %31, i32 0, i32 2
  %33 = load ptr, ptr getelementptr inbounds nuw (%struct.pmix_globals_t, ptr @pmix_globals, i32 0, i32 13), align 8, !tbaa !84
  %34 = load ptr, ptr %13, align 8, !tbaa !86
  %35 = call i32 @pmix_event_assign(ptr noundef %32, ptr noundef %33, i32 noundef -1, i16 noundef signext 4, ptr noundef @cycle_events, ptr noundef %34)
  call void @pmix_atomic_wmb()
  %36 = load ptr, ptr %13, align 8, !tbaa !86
  %37 = getelementptr inbounds nuw %struct.pmix_event_chain_t, ptr %36, i32 0, i32 2
  call void @event_active(ptr noundef %37, i32 noundef 4, i16 noundef signext 1)
  br label %38

38:                                               ; preds = %30
  br label %39

39:                                               ; preds = %38
  call void @llvm.lifetime.end.p0(i64 8, ptr %13) #13
  ret void
}