; Function Attrs: nounwind uwtable
define internal void @progress_local_event_hdlr(i32 noundef %0, ptr noundef %1, i64 noundef %2, ptr noundef %3, ptr noundef %4, ptr noundef initializes((608, 612), (632, 648), (656, 672)) %5) #0 {
  %7 = getelementptr inbounds nuw i8, ptr %5, i64 608
  store i32 %0, ptr %7, align 8, !tbaa !189
  %8 = getelementptr inbounds nuw i8, ptr %5, i64 632
  store ptr %1, ptr %8, align 8, !tbaa !190
  %9 = getelementptr inbounds nuw i8, ptr %5, i64 640
  store i64 %2, ptr %9, align 8, !tbaa !191
  %10 = getelementptr inbounds nuw i8, ptr %5, i64 656
  store ptr %3, ptr %10, align 8, !tbaa !192
  %11 = getelementptr inbounds nuw i8, ptr %5, i64 664
  store ptr %4, ptr %11, align 8, !tbaa !193
  %12 = getelementptr inbounds nuw i8, ptr %5, i64 152
  %13 = load ptr, ptr getelementptr inbounds nuw (i8, ptr @pmix_globals, i64 376), align 8, !tbaa !84
  %14 = tail call i32 @pmix_event_assign(ptr noundef nonnull %12, ptr noundef %13, i32 noundef -1, i16 noundef signext 4, ptr noundef nonnull @cycle_events, ptr noundef %5) #15
  fence release
  tail call void @event_active(ptr noundef nonnull %12, i32 noundef 4, i16 noundef signext 1) #15
  ret void
}